	.file	"main.c"
	.text
.Ltext0:
	.globl	greg_memcpy
	.type	greg_memcpy, @function
greg_memcpy:
.LFB41:
	.file 1 "src/main.c"
	.loc 1 9 0
	.cfi_startproc
.LVL0:
	movq	%rdi, %rax
.LVL1:
	.loc 1 11 0
	testq	%rdx, %rdx
	je	.L2
	addq	%rdi, %rdx
.LVL2:
	movq	%rdi, %rcx
.LVL3:
.L3:
	.loc 1 12 0
	movzbl	(%rsi), %r8d
	movb	%r8b, (%rcx)
	.loc 1 13 0
	addq	$1, %rcx
.LVL4:
	.loc 1 14 0
	addq	$1, %rsi
.LVL5:
	.loc 1 11 0
	cmpq	%rcx, %rdx
	jne	.L3
.LVL6:
.L2:
	.loc 1 18 0
	rep ret
	.cfi_endproc
.LFE41:
	.size	greg_memcpy, .-greg_memcpy
	.globl	main
	.type	main, @function
main:
.LFB42:
	.loc 1 21 0
	.cfi_startproc
.LVL7:
	pushq	%rbp
	.cfi_def_cfa_offset 16
	.cfi_offset 6, -16
	pushq	%rbx
	.cfi_def_cfa_offset 24
	.cfi_offset 3, -24
	subq	$8, %rsp
	.cfi_def_cfa_offset 32
	movq	%rsi, %rbp
	.loc 1 23 0
	movl	$3, %edi
.LVL8:
	call	malloc@PLT
.LVL9:
	movq	%rax, %rbx
.LVL10:
	.loc 1 24 0
	movq	0(%rbp), %rax
.LVL11:
	movb	$97, (%rax)
	.loc 1 26 0
	movl	$3, %edx
	movq	0(%rbp), %rsi
	movq	%rbx, %rdi
	call	greg_memcpy
.LVL12:
	.loc 1 32 0
	movsbl	(%rbx), %eax
	.loc 1 33 0
	addq	$8, %rsp
	.cfi_def_cfa_offset 24
	popq	%rbx
	.cfi_def_cfa_offset 16
.LVL13:
	popq	%rbp
	.cfi_def_cfa_offset 8
.LVL14:
	ret
	.cfi_endproc
.LFE42:
	.size	main, .-main
.Letext0:
	.file 2 "/usr/lib/gcc/x86_64-linux-gnu/7/include/stddef.h"
	.file 3 "/usr/include/x86_64-linux-gnu/bits/types.h"
	.file 4 "/usr/include/x86_64-linux-gnu/bits/libio.h"
	.file 5 "/usr/include/stdio.h"
	.file 6 "/usr/include/x86_64-linux-gnu/bits/sys_errlist.h"
	.file 7 "/usr/include/stdlib.h"
	.section	.note.GNU-stack,"",@progbits
