
main:     file format elf64-x86-64
main
architecture: i386:x86-64, flags 0x00000150:
HAS_SYMS, DYNAMIC, D_PAGED
start address 0x0000000000000840

Program Header:
    PHDR off    0x0000000000000040 vaddr 0x0000000000000040 paddr 0x0000000000000040 align 2**3
         filesz 0x00000000000001f8 memsz 0x00000000000001f8 flags r--
  INTERP off    0x0000000000000238 vaddr 0x0000000000000238 paddr 0x0000000000000238 align 2**0
         filesz 0x000000000000001c memsz 0x000000000000001c flags r--
    LOAD off    0x0000000000000000 vaddr 0x0000000000000000 paddr 0x0000000000000000 align 2**21
         filesz 0x0000000000000bd0 memsz 0x0000000000000bd0 flags r-x
    LOAD off    0x0000000000000de0 vaddr 0x0000000000200de0 paddr 0x0000000000200de0 align 2**21
         filesz 0x0000000000000330 memsz 0x0000000000000338 flags rw-
 DYNAMIC off    0x0000000000000df0 vaddr 0x0000000000200df0 paddr 0x0000000000200df0 align 2**3
         filesz 0x00000000000001d0 memsz 0x00000000000001d0 flags rw-
    NOTE off    0x0000000000000254 vaddr 0x0000000000000254 paddr 0x0000000000000254 align 2**2
         filesz 0x0000000000000044 memsz 0x0000000000000044 flags r--
EH_FRAME off    0x0000000000000ab4 vaddr 0x0000000000000ab4 paddr 0x0000000000000ab4 align 2**2
         filesz 0x0000000000000034 memsz 0x0000000000000034 flags r--
   STACK off    0x0000000000000000 vaddr 0x0000000000000000 paddr 0x0000000000000000 align 2**4
         filesz 0x0000000000000000 memsz 0x0000000000000000 flags rw-
   RELRO off    0x0000000000000de0 vaddr 0x0000000000200de0 paddr 0x0000000000200de0 align 2**0
         filesz 0x0000000000000220 memsz 0x0000000000000220 flags r--

Dynamic Section:
  NEEDED               libc.so.6
  INIT                 0x0000000000000800
  FINI                 0x0000000000000aa4
  INIT_ARRAY           0x0000000000200de0
  INIT_ARRAYSZ         0x0000000000000008
  FINI_ARRAY           0x0000000000200de8
  FINI_ARRAYSZ         0x0000000000000008
  GNU_HASH             0x0000000000000298
  STRTAB               0x0000000000000348
  SYMTAB               0x00000000000002b8
  STRSZ                0x000000000000007d
  SYMENT               0x0000000000000018
  DEBUG                0x0000000000000000
  PLTGOT               0x0000000000200fc0
  RELA                 0x00000000000003f8
  RELASZ               0x0000000000000408
  RELAENT              0x0000000000000018
  TEXTREL              0x0000000000000000
  FLAGS                0x000000000000000c
  FLAGS_1              0x0000000008000001
  VERNEED              0x00000000000003d8
  VERNEEDNUM           0x0000000000000001
  VERSYM               0x00000000000003c6
  RELACOUNT            0x0000000000000026

Version References:
  required from libc.so.6:
    0x09691a75 0x00 02 GLIBC_2.2.5

Sections:
Idx Name          Size      VMA               LMA               File off  Algn
  0 .interp       0000001c  0000000000000238  0000000000000238  00000238  2**0
                  CONTENTS, ALLOC, LOAD, READONLY, DATA
  1 .note.ABI-tag 00000020  0000000000000254  0000000000000254  00000254  2**2
                  CONTENTS, ALLOC, LOAD, READONLY, DATA
  2 .note.gnu.build-id 00000024  0000000000000274  0000000000000274  00000274  2**2
                  CONTENTS, ALLOC, LOAD, READONLY, DATA
  3 .gnu.hash     0000001c  0000000000000298  0000000000000298  00000298  2**3
                  CONTENTS, ALLOC, LOAD, READONLY, DATA
  4 .dynsym       00000090  00000000000002b8  00000000000002b8  000002b8  2**3
                  CONTENTS, ALLOC, LOAD, READONLY, DATA
  5 .dynstr       0000007d  0000000000000348  0000000000000348  00000348  2**0
                  CONTENTS, ALLOC, LOAD, READONLY, DATA
  6 .gnu.version  0000000c  00000000000003c6  00000000000003c6  000003c6  2**1
                  CONTENTS, ALLOC, LOAD, READONLY, DATA
  7 .gnu.version_r 00000020  00000000000003d8  00000000000003d8  000003d8  2**3
                  CONTENTS, ALLOC, LOAD, READONLY, DATA
  8 .rela.dyn     00000408  00000000000003f8  00000000000003f8  000003f8  2**3
                  CONTENTS, ALLOC, LOAD, READONLY, DATA
  9 .init         00000017  0000000000000800  0000000000000800  00000800  2**2
                  CONTENTS, ALLOC, LOAD, READONLY, CODE
 10 .plt          00000010  0000000000000820  0000000000000820  00000820  2**4
                  CONTENTS, ALLOC, LOAD, READONLY, CODE
 11 .plt.got      00000008  0000000000000830  0000000000000830  00000830  2**3
                  CONTENTS, ALLOC, LOAD, READONLY, CODE
 12 .text         00000262  0000000000000840  0000000000000840  00000840  2**4
                  CONTENTS, ALLOC, LOAD, READONLY, CODE
 13 .fini         00000009  0000000000000aa4  0000000000000aa4  00000aa4  2**2
                  CONTENTS, ALLOC, LOAD, READONLY, CODE
 14 .rodata       00000004  0000000000000ab0  0000000000000ab0  00000ab0  2**2
                  CONTENTS, ALLOC, LOAD, READONLY, DATA
 15 .eh_frame_hdr 00000034  0000000000000ab4  0000000000000ab4  00000ab4  2**2
                  CONTENTS, ALLOC, LOAD, READONLY, DATA
 16 .eh_frame     000000e8  0000000000000ae8  0000000000000ae8  00000ae8  2**3
                  CONTENTS, ALLOC, LOAD, READONLY, DATA
 17 .init_array   00000008  0000000000200de0  0000000000200de0  00000de0  2**3
                  CONTENTS, ALLOC, LOAD, DATA
 18 .fini_array   00000008  0000000000200de8  0000000000200de8  00000de8  2**3
                  CONTENTS, ALLOC, LOAD, DATA
 19 .dynamic      000001d0  0000000000200df0  0000000000200df0  00000df0  2**3
                  CONTENTS, ALLOC, LOAD, DATA
 20 .got          00000040  0000000000200fc0  0000000000200fc0  00000fc0  2**3
                  CONTENTS, ALLOC, LOAD, DATA
 21 .data         00000110  0000000000201000  0000000000201000  00001000  2**3
                  CONTENTS, ALLOC, LOAD, DATA
 22 .bss          00000008  0000000000201110  0000000000201110  00001110  2**0
                  ALLOC
 23 .comment      0000002b  0000000000000000  0000000000000000  00001110  2**0
                  CONTENTS, READONLY
 24 .debug_aranges 00000030  0000000000000000  0000000000000000  00001140  2**4
                  CONTENTS, READONLY, DEBUGGING
 25 .debug_info   0000002e  0000000000000000  0000000000000000  00001170  2**0
                  CONTENTS, READONLY, DEBUGGING
 26 .debug_abbrev 00000014  0000000000000000  0000000000000000  0000119e  2**0
                  CONTENTS, READONLY, DEBUGGING
 27 .debug_line   00000077  0000000000000000  0000000000000000  000011b2  2**0
                  CONTENTS, READONLY, DEBUGGING
 28 .debug_str    00000047  0000000000000000  0000000000000000  00001229  2**0
                  CONTENTS, READONLY, DEBUGGING
SYMBOL TABLE:
0000000000000238 l    d  .interp	0000000000000000              .interp
0000000000000254 l    d  .note.ABI-tag	0000000000000000              .note.ABI-tag
0000000000000274 l    d  .note.gnu.build-id	0000000000000000              .note.gnu.build-id
0000000000000298 l    d  .gnu.hash	0000000000000000              .gnu.hash
00000000000002b8 l    d  .dynsym	0000000000000000              .dynsym
0000000000000348 l    d  .dynstr	0000000000000000              .dynstr
00000000000003c6 l    d  .gnu.version	0000000000000000              .gnu.version
00000000000003d8 l    d  .gnu.version_r	0000000000000000              .gnu.version_r
00000000000003f8 l    d  .rela.dyn	0000000000000000              .rela.dyn
0000000000000800 l    d  .init	0000000000000000              .init
0000000000000820 l    d  .plt	0000000000000000              .plt
0000000000000830 l    d  .plt.got	0000000000000000              .plt.got
0000000000000840 l    d  .text	0000000000000000              .text
0000000000000aa4 l    d  .fini	0000000000000000              .fini
0000000000000ab0 l    d  .rodata	0000000000000000              .rodata
0000000000000ab4 l    d  .eh_frame_hdr	0000000000000000              .eh_frame_hdr
0000000000000ae8 l    d  .eh_frame	0000000000000000              .eh_frame
0000000000200de0 l    d  .init_array	0000000000000000              .init_array
0000000000200de8 l    d  .fini_array	0000000000000000              .fini_array
0000000000200df0 l    d  .dynamic	0000000000000000              .dynamic
0000000000200fc0 l    d  .got	0000000000000000              .got
0000000000201000 l    d  .data	0000000000000000              .data
0000000000201110 l    d  .bss	0000000000000000              .bss
0000000000000000 l    d  .comment	0000000000000000              .comment
0000000000000000 l    d  .debug_aranges	0000000000000000              .debug_aranges
0000000000000000 l    d  .debug_info	0000000000000000              .debug_info
0000000000000000 l    d  .debug_abbrev	0000000000000000              .debug_abbrev
0000000000000000 l    d  .debug_line	0000000000000000              .debug_line
0000000000000000 l    d  .debug_str	0000000000000000              .debug_str
0000000000000000 l    df *ABS*	0000000000000000              crtstuff.c
0000000000000870 l     F .text	0000000000000000              deregister_tm_clones
00000000000008b0 l     F .text	0000000000000000              register_tm_clones
0000000000000900 l     F .text	0000000000000000              __do_global_dtors_aux
0000000000201110 l     O .bss	0000000000000001              completed.7697
0000000000200de8 l     O .fini_array	0000000000000000              __do_global_dtors_aux_fini_array_entry
0000000000000940 l     F .text	0000000000000000              frame_dummy
0000000000200de0 l     O .init_array	0000000000000000              __frame_dummy_init_array_entry
0000000000000000 l    df *ABS*	0000000000000000              main.c
000000000000094a l       .text	0000000000000000              tm_test1_gadget_000005
0000000000000952 l       .text	0000000000000000              tm_test1_gadget_000006
0000000000000956 l       .text	0000000000000000              tm_test1_gadget_000007
000000000000095a l       .text	0000000000000000              tm_test1_gadget_000008
000000000000095e l       .text	0000000000000000              tm_test1_gadget_000009
0000000000000962 l       .text	0000000000000000              tm_test1_gadget_00000a
0000000000000966 l       .text	0000000000000000              tm_test1_gadget_00000b
0000000000000969 l       .text	0000000000000000              tm_test1_gadget_00000c
0000000000000971 l       .text	0000000000000000              tm_test1_gadget_00000d
0000000000201100 l       .data	0000000000000000              __main_restorex
0000000000000999 l       .text	0000000000000000              __main_restore
000000000000099e l       .text	0000000000000000              _main2
000000000000099e l       .text	0000000000000000              tm_main_gadget_000012
00000000000009a6 l       .text	0000000000000000              tm_main_gadget_000013
00000000000009aa l       .text	0000000000000000              tm_main_gadget_000014
00000000000009af l       .text	0000000000000000              tm_main_gadget_000015
00000000000009b7 l       .text	0000000000000000              tm_main_gadget_000016
00000000000009bf l       .text	0000000000000000              tm_main_gadget_000017
00000000000009c7 l       .text	0000000000000000              tm_main_gadget_000018
0000000000201088 l       .data	0000000000000000              tm_main_gadget_000018x
00000000000009cf l       .text	0000000000000000              tm_main_gadget_00001a
00000000000009d3 l       .text	0000000000000000              tm_main_gadget_00001b
00000000000009d7 l       .text	0000000000000000              tm_main_gadget_00001c
00000000000009db l       .text	0000000000000000              tm_main_gadget_00001d
00000000000009df l       .text	0000000000000000              tm_main_gadget_00001e
00000000000009e2 l       .text	0000000000000000              tm_main_gadget_00001f
00000000000009e5 l       .text	0000000000000000              tm_main_gadget_000020
00000000000009f7 l       .text	0000000000000000              tm_main_gadget_000021
00000000000009fb l       .text	0000000000000000              tm_main_gadget_000022
0000000000000a00 l       .text	0000000000000000              tm_main_gadget_000024
0000000000000a05 l       .text	0000000000000000              tm_main_gadget_000025
0000000000000a08 l       .text	0000000000000000              tm_main_gadget_000025_cndjmp
00000000002010e0 l       .data	0000000000000000              tm_main_gadget_000025x
0000000000000a10 l       .text	0000000000000000              tm_main_gadget_000026
0000000000000a14 l       .text	0000000000000000              tm_main_gadget_000027
0000000000000a1f l       .text	0000000000000000              tm_main_gadget_000028
0000000000201010 l       .data	0000000000000000              tm_test1_gadget_000005x
0000000000201018 l       .data	0000000000000000              tm_test1_gadget_000006x
0000000000201020 l       .data	0000000000000000              tm_test1_gadget_000007x
0000000000201028 l       .data	0000000000000000              tm_test1_gadget_000008x
0000000000201030 l       .data	0000000000000000              tm_test1_gadget_000009x
0000000000201038 l       .data	0000000000000000              tm_test1_gadget_00000ax
0000000000201040 l       .data	0000000000000000              tm_test1_gadget_00000bx
0000000000201048 l       .data	0000000000000000              tm_test1_gadget_00000cx
0000000000201050 l       .data	0000000000000000              tm_test1_gadget_00000dx
0000000000201058 l       .data	0000000000000000              tm_main_gadget_000012x
0000000000201060 l       .data	0000000000000000              tm_main_gadget_000013x
0000000000201068 l       .data	0000000000000000              tm_main_gadget_000014x
0000000000201070 l       .data	0000000000000000              tm_main_gadget_000015x
0000000000201078 l       .data	0000000000000000              tm_main_gadget_000016x
0000000000201080 l       .data	0000000000000000              tm_main_gadget_000017x
0000000000201090 l       .data	0000000000000000              tm_main_gadget_00001ax
0000000000201098 l       .data	0000000000000000              tm_main_gadget_00001bx
00000000002010a0 l       .data	0000000000000000              tm_main_gadget_00001cx
00000000002010a8 l       .data	0000000000000000              tm_main_gadget_00001dx
00000000002010b0 l       .data	0000000000000000              tm_main_gadget_00001ex
00000000002010b8 l       .data	0000000000000000              tm_main_gadget_00001fx
00000000002010c0 l       .data	0000000000000000              tm_main_gadget_000020x
00000000002010c8 l       .data	0000000000000000              tm_main_gadget_000021x
00000000002010d0 l       .data	0000000000000000              tm_main_gadget_000022x
00000000002010d8 l       .data	0000000000000000              tm_main_gadget_000024x
00000000002010e8 l       .data	0000000000000000              tm_main_gadget_000026x
00000000002010f0 l       .data	0000000000000000              tm_main_gadget_000027x
00000000002010f8 l       .data	0000000000000000              tm_main_gadget_000028x
0000000000201108 l       .data	0000000000000000              __main2x
0000000000000000 l    df *ABS*	0000000000000000              crtstuff.c
0000000000000bcc l     O .eh_frame	0000000000000000              __FRAME_END__
0000000000000000 l    df *ABS*	0000000000000000              
0000000000200de8 l       .init_array	0000000000000000              __init_array_end
0000000000200df0 l     O .dynamic	0000000000000000              _DYNAMIC
0000000000200de0 l       .init_array	0000000000000000              __init_array_start
0000000000000ab4 l       .eh_frame_hdr	0000000000000000              __GNU_EH_FRAME_HDR
0000000000200fc0 l     O .got	0000000000000000              _GLOBAL_OFFSET_TABLE_
0000000000000aa0 g     F .text	0000000000000002              __libc_csu_fini
0000000000000000  w      *UND*	0000000000000000              _ITM_deregisterTMCloneTable
0000000000201000  w      .data	0000000000000000              data_start
0000000000201058 g       .data	0000000000000000              test1_ropchain_end
0000000000201110 g       .data	0000000000000000              _edata
0000000000000aa4 g     F .fini	0000000000000000              _fini
000000000000094a g     F .text	000000000000002f              test1
0000000000201010 g       .data	0000000000000000              test1_ropchain_start
0000000000000000       F *UND*	0000000000000000              __libc_start_main@@GLIBC_2.2.5
0000000000201000 g       .data	0000000000000000              __data_start
0000000000201010 g       .data	0000000000000000              rop_start
0000000000000000  w      *UND*	0000000000000000              __gmon_start__
0000000000201008 g     O .data	0000000000000000              .hidden __dso_handle
0000000000000ab0 g     O .rodata	0000000000000004              _IO_stdin_used
0000000000000a30 g     F .text	0000000000000065              __libc_csu_init
0000000000201110 g       .data	0000000000000000              main_ropchain_end
0000000000201118 g       .bss	0000000000000000              _end
0000000000000840 g     F .text	000000000000002b              _start
0000000000201110 g       .bss	0000000000000000              __bss_start
0000000000000979 g     F .text	00000000000000ae              main
0000000000201110 g       .data	0000000000000000              rop_end
0000000000201058 g       .data	0000000000000000              main_ropchain_start
0000000000201110 g     O .data	0000000000000000              .hidden __TMC_END__
0000000000000000  w      *UND*	0000000000000000              _ITM_registerTMCloneTable
0000000000000000  w    F *UND*	0000000000000000              __cxa_finalize@@GLIBC_2.2.5
0000000000000800 g     F .init	0000000000000000              _init



Disassembly of section .init:

0000000000000800 <_init>:
 800:	48 83 ec 08          	sub    $0x8,%rsp
 804:	48 8b 05 dd 07 20 00 	mov    0x2007dd(%rip),%rax        # 200fe8 <__gmon_start__>
 80b:	48 85 c0             	test   %rax,%rax
 80e:	74 02                	je     812 <_init+0x12>
 810:	ff d0                	callq  *%rax
 812:	48 83 c4 08          	add    $0x8,%rsp
 816:	c3                   	retq   

Disassembly of section .plt:

0000000000000820 <.plt>:
 820:	ff 35 a2 07 20 00    	pushq  0x2007a2(%rip)        # 200fc8 <_GLOBAL_OFFSET_TABLE_+0x8>
 826:	ff 25 a4 07 20 00    	jmpq   *0x2007a4(%rip)        # 200fd0 <_GLOBAL_OFFSET_TABLE_+0x10>
 82c:	0f 1f 40 00          	nopl   0x0(%rax)

Disassembly of section .plt.got:

0000000000000830 <__cxa_finalize@plt>:
 830:	ff 25 c2 07 20 00    	jmpq   *0x2007c2(%rip)        # 200ff8 <__cxa_finalize@GLIBC_2.2.5>
 836:	66 90                	xchg   %ax,%ax

Disassembly of section .text:

0000000000000840 <_start>:
 840:	31 ed                	xor    %ebp,%ebp
 842:	49 89 d1             	mov    %rdx,%r9
 845:	5e                   	pop    %rsi
 846:	48 89 e2             	mov    %rsp,%rdx
 849:	48 83 e4 f0          	and    $0xfffffffffffffff0,%rsp
 84d:	50                   	push   %rax
 84e:	54                   	push   %rsp
 84f:	4c 8d 05 4a 02 00 00 	lea    0x24a(%rip),%r8        # aa0 <__libc_csu_fini>
 856:	48 8d 0d d3 01 00 00 	lea    0x1d3(%rip),%rcx        # a30 <__libc_csu_init>
 85d:	48 8d 3d 15 01 00 00 	lea    0x115(%rip),%rdi        # 979 <main>
 864:	ff 15 76 07 20 00    	callq  *0x200776(%rip)        # 200fe0 <__libc_start_main@GLIBC_2.2.5>
 86a:	f4                   	hlt    
 86b:	0f 1f 44 00 00       	nopl   0x0(%rax,%rax,1)

0000000000000870 <deregister_tm_clones>:
 870:	48 8d 3d 99 08 20 00 	lea    0x200899(%rip),%rdi        # 201110 <__TMC_END__>
 877:	55                   	push   %rbp
 878:	48 8d 05 91 08 20 00 	lea    0x200891(%rip),%rax        # 201110 <__TMC_END__>
 87f:	48 39 f8             	cmp    %rdi,%rax
 882:	48 89 e5             	mov    %rsp,%rbp
 885:	74 19                	je     8a0 <deregister_tm_clones+0x30>
 887:	48 8b 05 4a 07 20 00 	mov    0x20074a(%rip),%rax        # 200fd8 <_ITM_deregisterTMCloneTable>
 88e:	48 85 c0             	test   %rax,%rax
 891:	74 0d                	je     8a0 <deregister_tm_clones+0x30>
 893:	5d                   	pop    %rbp
 894:	ff e0                	jmpq   *%rax
 896:	66 2e 0f 1f 84 00 00 	nopw   %cs:0x0(%rax,%rax,1)
 89d:	00 00 00 
 8a0:	5d                   	pop    %rbp
 8a1:	c3                   	retq   
 8a2:	0f 1f 40 00          	nopl   0x0(%rax)
 8a6:	66 2e 0f 1f 84 00 00 	nopw   %cs:0x0(%rax,%rax,1)
 8ad:	00 00 00 

00000000000008b0 <register_tm_clones>:
 8b0:	48 8d 3d 59 08 20 00 	lea    0x200859(%rip),%rdi        # 201110 <__TMC_END__>
 8b7:	48 8d 35 52 08 20 00 	lea    0x200852(%rip),%rsi        # 201110 <__TMC_END__>
 8be:	55                   	push   %rbp
 8bf:	48 29 fe             	sub    %rdi,%rsi
 8c2:	48 89 e5             	mov    %rsp,%rbp
 8c5:	48 c1 fe 03          	sar    $0x3,%rsi
 8c9:	48 89 f0             	mov    %rsi,%rax
 8cc:	48 c1 e8 3f          	shr    $0x3f,%rax
 8d0:	48 01 c6             	add    %rax,%rsi
 8d3:	48 d1 fe             	sar    %rsi
 8d6:	74 18                	je     8f0 <register_tm_clones+0x40>
 8d8:	48 8b 05 11 07 20 00 	mov    0x200711(%rip),%rax        # 200ff0 <_ITM_registerTMCloneTable>
 8df:	48 85 c0             	test   %rax,%rax
 8e2:	74 0c                	je     8f0 <register_tm_clones+0x40>
 8e4:	5d                   	pop    %rbp
 8e5:	ff e0                	jmpq   *%rax
 8e7:	66 0f 1f 84 00 00 00 	nopw   0x0(%rax,%rax,1)
 8ee:	00 00 
 8f0:	5d                   	pop    %rbp
 8f1:	c3                   	retq   
 8f2:	0f 1f 40 00          	nopl   0x0(%rax)
 8f6:	66 2e 0f 1f 84 00 00 	nopw   %cs:0x0(%rax,%rax,1)
 8fd:	00 00 00 

0000000000000900 <__do_global_dtors_aux>:
 900:	80 3d 09 08 20 00 00 	cmpb   $0x0,0x200809(%rip)        # 201110 <__TMC_END__>
 907:	75 2f                	jne    938 <__do_global_dtors_aux+0x38>
 909:	48 83 3d e7 06 20 00 	cmpq   $0x0,0x2006e7(%rip)        # 200ff8 <__cxa_finalize@GLIBC_2.2.5>
 910:	00 
 911:	55                   	push   %rbp
 912:	48 89 e5             	mov    %rsp,%rbp
 915:	74 0c                	je     923 <__do_global_dtors_aux+0x23>
 917:	48 8b 3d ea 06 20 00 	mov    0x2006ea(%rip),%rdi        # 201008 <__dso_handle>
 91e:	e8 0d ff ff ff       	callq  830 <__cxa_finalize@plt>
 923:	e8 48 ff ff ff       	callq  870 <deregister_tm_clones>
 928:	c6 05 e1 07 20 00 01 	movb   $0x1,0x2007e1(%rip)        # 201110 <__TMC_END__>
 92f:	5d                   	pop    %rbp
 930:	c3                   	retq   
 931:	0f 1f 80 00 00 00 00 	nopl   0x0(%rax)
 938:	f3 c3                	repz retq 
 93a:	66 0f 1f 44 00 00    	nopw   0x0(%rax,%rax,1)

0000000000000940 <frame_dummy>:
 940:	55                   	push   %rbp
 941:	48 89 e5             	mov    %rsp,%rbp
 944:	5d                   	pop    %rbp
 945:	e9 66 ff ff ff       	jmpq   8b0 <register_tm_clones>

000000000000094a <test1>:
 94a:	49 83 ef 08          	sub    $0x8,%r15
 94e:	49 89 2f             	mov    %rbp,(%r15)
 951:	c3                   	retq   

0000000000000952 <tm_test1_gadget_000006>:
 952:	4c 89 fd             	mov    %r15,%rbp
 955:	c3                   	retq   

0000000000000956 <tm_test1_gadget_000007>:
 956:	89 7d fc             	mov    %edi,-0x4(%rbp)
 959:	c3                   	retq   

000000000000095a <tm_test1_gadget_000008>:
 95a:	89 75 f8             	mov    %esi,-0x8(%rbp)
 95d:	c3                   	retq   

000000000000095e <tm_test1_gadget_000009>:
 95e:	8b 55 fc             	mov    -0x4(%rbp),%edx
 961:	c3                   	retq   

0000000000000962 <tm_test1_gadget_00000a>:
 962:	8b 45 f8             	mov    -0x8(%rbp),%eax
 965:	c3                   	retq   

0000000000000966 <tm_test1_gadget_00000b>:
 966:	01 d0                	add    %edx,%eax
 968:	c3                   	retq   

0000000000000969 <tm_test1_gadget_00000c>:
 969:	49 8b 2f             	mov    (%r15),%rbp
 96c:	49 83 c7 08          	add    $0x8,%r15
 970:	c3                   	retq   

0000000000000971 <tm_test1_gadget_00000d>:
 971:	49 8b 27             	mov    (%r15),%rsp
 974:	49 83 c7 08          	add    $0x8,%r15
 978:	c3                   	retq   

0000000000000979 <main>:
 979:	55                   	push   %rbp
 97a:	49 89 e7             	mov    %rsp,%r15
 97d:	49 83 ef 08          	sub    $0x8,%r15
 981:	48 bc 00 11 20 00 00 	movabs $0x201100,%rsp
 988:	00 00 00 
 98b:	49 89 27             	mov    %rsp,(%r15)
 98e:	48 bc 58 10 20 00 00 	movabs $0x201058,%rsp
 995:	00 00 00 
 998:	c3                   	retq   

0000000000000999 <__main_restore>:
 999:	4c 89 fc             	mov    %r15,%rsp
 99c:	5d                   	pop    %rbp
 99d:	c3                   	retq   

000000000000099e <_main2>:
 99e:	49 83 ef 08          	sub    $0x8,%r15
 9a2:	49 89 2f             	mov    %rbp,(%r15)
 9a5:	c3                   	retq   

00000000000009a6 <tm_main_gadget_000013>:
 9a6:	4c 89 fd             	mov    %r15,%rbp
 9a9:	c3                   	retq   

00000000000009aa <tm_main_gadget_000014>:
 9aa:	49 83 ef 10          	sub    $0x10,%r15
 9ae:	c3                   	retq   

00000000000009af <tm_main_gadget_000015>:
 9af:	c7 45 f8 00 00 00 00 	movl   $0x0,-0x8(%rbp)
 9b6:	c3                   	retq   

00000000000009b7 <tm_main_gadget_000016>:
 9b7:	c7 45 fc 00 00 00 00 	movl   $0x0,-0x4(%rbp)
 9be:	c3                   	retq   

00000000000009bf <tm_main_gadget_000017>:
 9bf:	c7 45 f8 00 00 00 00 	movl   $0x0,-0x8(%rbp)
 9c6:	c3                   	retq   

00000000000009c7 <tm_main_gadget_000018>:
 9c7:	48 81 c4 48 00 00 00 	add    $0x48,%rsp
 9ce:	c3                   	retq   

00000000000009cf <tm_main_gadget_00001a>:
 9cf:	8b 45 f8             	mov    -0x8(%rbp),%eax
 9d2:	c3                   	retq   

00000000000009d3 <tm_main_gadget_00001b>:
 9d3:	8d 50 01             	lea    0x1(%rax),%edx
 9d6:	c3                   	retq   

00000000000009d7 <tm_main_gadget_00001c>:
 9d7:	89 55 f8             	mov    %edx,-0x8(%rbp)
 9da:	c3                   	retq   

00000000000009db <tm_main_gadget_00001d>:
 9db:	8b 55 f8             	mov    -0x8(%rbp),%edx
 9de:	c3                   	retq   

00000000000009df <tm_main_gadget_00001e>:
 9df:	89 c6                	mov    %eax,%esi
 9e1:	c3                   	retq   

00000000000009e2 <tm_main_gadget_00001f>:
 9e2:	89 d7                	mov    %edx,%edi
 9e4:	c3                   	retq   

00000000000009e5 <tm_main_gadget_000020>:
 9e5:	49 83 ef 08          	sub    $0x8,%r15
 9e9:	49 89 27             	mov    %rsp,(%r15)
 9ec:	48 bc 10 10 20 00 00 	movabs $0x201010,%rsp
 9f3:	00 00 00 
 9f6:	c3                   	retq   

00000000000009f7 <tm_main_gadget_000021>:
 9f7:	01 45 fc             	add    %eax,-0x4(%rbp)
 9fa:	c3                   	retq   

00000000000009fb <tm_main_gadget_000022>:
 9fb:	83 45 f8 01          	addl   $0x1,-0x8(%rbp)
 9ff:	c3                   	retq   

0000000000000a00 <tm_main_gadget_000024>:
 a00:	83 7d f8 09          	cmpl   $0x9,-0x8(%rbp)
 a04:	c3                   	retq   

0000000000000a05 <tm_main_gadget_000025>:
 a05:	7e 01                	jle    a08 <tm_main_gadget_000025_cndjmp>
 a07:	c3                   	retq   

0000000000000a08 <tm_main_gadget_000025_cndjmp>:
 a08:	48 81 c4 a8 ff ff ff 	add    $0xffffffffffffffa8,%rsp
 a0f:	c3                   	retq   

0000000000000a10 <tm_main_gadget_000026>:
 a10:	8b 45 fc             	mov    -0x4(%rbp),%eax
 a13:	c3                   	retq   

0000000000000a14 <tm_main_gadget_000027>:
 a14:	49 89 ef             	mov    %rbp,%r15
 a17:	49 8b 2f             	mov    (%r15),%rbp
 a1a:	49 83 c7 08          	add    $0x8,%r15
 a1e:	c3                   	retq   

0000000000000a1f <tm_main_gadget_000028>:
 a1f:	49 8b 27             	mov    (%r15),%rsp
 a22:	49 83 c7 08          	add    $0x8,%r15
 a26:	c3                   	retq   
 a27:	66 0f 1f 84 00 00 00 	nopw   0x0(%rax,%rax,1)
 a2e:	00 00 

0000000000000a30 <__libc_csu_init>:
 a30:	41 57                	push   %r15
 a32:	41 56                	push   %r14
 a34:	49 89 d7             	mov    %rdx,%r15
 a37:	41 55                	push   %r13
 a39:	41 54                	push   %r12
 a3b:	4c 8d 25 9e 03 20 00 	lea    0x20039e(%rip),%r12        # 200de0 <__frame_dummy_init_array_entry>
 a42:	55                   	push   %rbp
 a43:	48 8d 2d 9e 03 20 00 	lea    0x20039e(%rip),%rbp        # 200de8 <__init_array_end>
 a4a:	53                   	push   %rbx
 a4b:	41 89 fd             	mov    %edi,%r13d
 a4e:	49 89 f6             	mov    %rsi,%r14
 a51:	4c 29 e5             	sub    %r12,%rbp
 a54:	48 83 ec 08          	sub    $0x8,%rsp
 a58:	48 c1 fd 03          	sar    $0x3,%rbp
 a5c:	e8 9f fd ff ff       	callq  800 <_init>
 a61:	48 85 ed             	test   %rbp,%rbp
 a64:	74 20                	je     a86 <__libc_csu_init+0x56>
 a66:	31 db                	xor    %ebx,%ebx
 a68:	0f 1f 84 00 00 00 00 	nopl   0x0(%rax,%rax,1)
 a6f:	00 
 a70:	4c 89 fa             	mov    %r15,%rdx
 a73:	4c 89 f6             	mov    %r14,%rsi
 a76:	44 89 ef             	mov    %r13d,%edi
 a79:	41 ff 14 dc          	callq  *(%r12,%rbx,8)
 a7d:	48 83 c3 01          	add    $0x1,%rbx
 a81:	48 39 dd             	cmp    %rbx,%rbp
 a84:	75 ea                	jne    a70 <__libc_csu_init+0x40>
 a86:	48 83 c4 08          	add    $0x8,%rsp
 a8a:	5b                   	pop    %rbx
 a8b:	5d                   	pop    %rbp
 a8c:	41 5c                	pop    %r12
 a8e:	41 5d                	pop    %r13
 a90:	41 5e                	pop    %r14
 a92:	41 5f                	pop    %r15
 a94:	c3                   	retq   
 a95:	90                   	nop
 a96:	66 2e 0f 1f 84 00 00 	nopw   %cs:0x0(%rax,%rax,1)
 a9d:	00 00 00 

0000000000000aa0 <__libc_csu_fini>:
 aa0:	f3 c3                	repz retq 

Disassembly of section .fini:

0000000000000aa4 <_fini>:
 aa4:	48 83 ec 08          	sub    $0x8,%rsp
 aa8:	48 83 c4 08          	add    $0x8,%rsp
 aac:	c3                   	retq   
